target datalayout = "e-m:e-p270:32:32-p271:32:32-p272:64:64-i64:64-i128:128-f80:128-n8:16:32:64-S128"
target triple = "x86_64-pc-linux-gnu"

%struct.AVProbeData = type { ptr, ptr, i32, ptr }

; Function Attrs: nounwind uwtable
define internal i32 @wc3_probe(ptr noundef %0) #0 {
  %2 = alloca i32, align 4
  %3 = alloca ptr, align 8
  store ptr %0, ptr %3, align 8, !tbaa !4
  %4 = load ptr, ptr %3, align 8, !tbaa !4
  %5 = getelementptr inbounds nuw %struct.AVProbeData, ptr %4, i32 0, i32 2
  %6 = load i32, ptr %5, align 8, !tbaa !9
  %7 = icmp slt i32 %6, 12
  br i1 %7, label %8, label %9

8:                                                ; preds = %1
  store i32 0, ptr %2, align 4
  br label %25

9:                                                ; preds = %1
  %10 = load ptr, ptr %3, align 8, !tbaa !4
  %11 = getelementptr inbounds nuw %struct.AVProbeData, ptr %10, i32 0, i32 1
  %12 = load ptr, ptr %11, align 8, !tbaa !13
  %13 = getelementptr inbounds i8, ptr %12, i64 0
  %14 = load i32, ptr %13, align 1, !tbaa !14
  %15 = icmp ne i32 %14, 1297239878
  br i1 %15, label %23, label %16

16:                                               ; preds = %9
  %17 = load ptr, ptr %3, align 8, !tbaa !4
  %18 = getelementptr inbounds nuw %struct.AVProbeData, ptr %17, i32 0, i32 1
  %19 = load ptr, ptr %18, align 8, !tbaa !13
  %20 = getelementptr inbounds i8, ptr %19, i64 8
  %21 = load i32, ptr %20, align 1, !tbaa !14
  %22 = icmp ne i32 %21, 1163284301
  br i1 %22, label %23, label %24

23:                                               ; preds = %16, %9
  store i32 0, ptr %2, align 4
  br label %25

24:                                               ; preds = %16
  store i32 100, ptr %2, align 4
  br label %25

25:                                               ; preds = %24, %23, %8
  %26 = load i32, ptr %2, align 4
  ret i32 %26
}